(lp1
(lp2
I3
aI0
aI3
aa(lp3
I4
aI0
aI4
aa(lp4
I3
aI0
aI3
aa(lp5
I2
aI0
aI2
aa(lp6
I1
aI0
aI1
aa(lp7
I6
aI0
aI6
aa(lp8
I1
aI0
aI1
aa(lp9
I0
aI0
aI0
aa(lp10
I2
aI0
aI2
aa(lp11
I2
aI0
aI2
aa(lp12
I0
aI0
aI0
aa(lp13
I5
aI0
aI5
aa(lp14
I1
aI0
aI1
aa(lp15
I1
aI0
aI1
aa.