(lp1
(lp2
I4
aI0
aI4
aa(lp3
I10
aI0
aI10
aa(lp4
I3
aI0
aI3
aa(lp5
I1
aI0
aI1
aa(lp6
I2
aI0
aI2
aa(lp7
I6
aI0
aI6
aa(lp8
I7
aI0
aI7
aa(lp9
I9
aI0
aI9
aa(lp10
I3
aI0
aI3
aa(lp11
I6
aI0
aI6
aa(lp12
I1
aI0
aI1
aa(lp13
I10
aI0
aI10
aa(lp14
I4
aI0
aI4
aa(lp15
I9
aI0
aI9
aa.