(lp1
(lp2
I4
aI0
aI4
aa(lp3
I2
aI0
aI2
aa(lp4
I3
aI0
aI3
aa(lp5
I4
aI0
aI4
aa(lp6
I3
aI0
aI3
aa(lp7
I2
aI0
aI2
aa(lp8
I2
aI0
aI2
aa(lp9
I0
aI0
aI0
aa(lp10
I1
aI0
aI1
aa(lp11
I2
aI0
aI2
aa(lp12
I2
aI0
aI2
aa(lp13
I3
aI0
aI3
aa(lp14
I3
aI0
aI3
aa.