(lp1
(lp2
I5
aI0
aI5
aa(lp3
I11
aI0
aI11
aa(lp4
I9
aI0
aI9
aa(lp5
I7
aI0
aI7
aa(lp6
I11
aI0
aI11
aa(lp7
I10
aI0
aI10
aa(lp8
I8
aI0
aI8
aa(lp9
I4
aI0
aI4
aa(lp10
I7
aI0
aI7
aa(lp11
I9
aI0
aI9
aa(lp12
I3
aI0
aI3
aa(lp13
I6
aI0
aI6
aa(lp14
I4
aI0
aI4
aa.