(lp1
(lp2
I2
aI0
aI2
aa(lp3
I4
aI0
aI4
aa(lp4
I2
aI0
aI2
aa(lp5
I3
aI0
aI3
aa(lp6
I1
aI0
aI1
aa(lp7
I4
aI0
aI4
aa(lp8
I1
aI0
aI1
aa(lp9
I3
aI0
aI3
aa(lp10
I10
aI0
aI10
aa(lp11
I7
aI0
aI7
aa(lp12
I6
aI0
aI6
aa(lp13
I4
aI0
aI4
aa(lp14
I1
aI0
aI1
aa.