(lp1
(lp2
I6
aI0
aI6
aa(lp3
I4
aI0
aI4
aa(lp4
I5
aI0
aI5
aa(lp5
I5
aI0
aI5
aa(lp6
I7
aI0
aI7
aa(lp7
I6
aI0
aI6
aa(lp8
I2
aI0
aI2
aa(lp9
I3
aI0
aI3
aa(lp10
I2
aI0
aI2
aa(lp11
I4
aI0
aI4
aa(lp12
I2
aI0
aI2
aa(lp13
I6
aI0
aI6
aa(lp14
I1
aI0
aI1
aa(lp15
I6
aI0
aI6
aa.