(lp1
(lp2
I0
aI0
aI0
aa(lp3
I0
aI0
aI0
aa(lp4
I7
aI0
aI7
aa(lp5
I0
aI0
aI0
aa(lp6
I0
aI0
aI0
aa(lp7
I3
aI0
aI3
aa(lp8
I2
aI0
aI2
aa(lp9
I0
aI0
aI0
aa(lp10
I0
aI0
aI0
aa(lp11
I0
aI0
aI0
aa(lp12
I0
aI0
aI0
aa(lp13
I0
aI0
aI0
aa(lp14
I1
aI0
aI1
aa(lp15
I1
aI0
aI1
aa.